; Function Attrs: mustprogress uwtable
define void @_ZN19ColoringRulesDialog15rowCountChangedEv(ptr noundef nonnull align 8 dereferenceable(200) %0) local_unnamed_addr #0 align 2 {
  %2 = alloca %class.QModelIndex, align 8
  %3 = getelementptr inbounds i8, ptr %0, i64 64
  %4 = load ptr, ptr %3, align 8
  %5 = getelementptr inbounds i8, ptr %4, i64 56
  %6 = load ptr, ptr %5, align 8
  %7 = getelementptr inbounds i8, ptr %0, i64 88
  store i32 -1, ptr %2, align 8
  %8 = getelementptr inbounds i8, ptr %2, i64 4
  store i32 -1, ptr %8, align 4
  %9 = getelementptr inbounds i8, ptr %2, i64 8
  call void @llvm.memset.p0.i64(ptr noundef nonnull align 8 dereferenceable(16) %9, i8 0, i64 16, i1 false)
  %10 = call noundef i32 @_ZNK18ColoringRulesModel8rowCountERK11QModelIndex(ptr noundef nonnull align 8 dereferenceable(88) %7, ptr noundef nonnull align 8 dereferenceable(24) %2)
  %11 = icmp sgt i32 %10, 0
  call void @_ZN7QWidget10setEnabledEb(ptr noundef nonnull align 8 dereferenceable(40) %6, i1 noundef zeroext %11)
  ret void
}